target datalayout = "e-m:e-p270:32:32-p271:32:32-p272:64:64-i64:64-i128:128-f80:128-n8:16:32:64-S128"
target triple = "x86_64-unknown-linux-gnu"

%"struct.std::_Vector_base" = type { %"struct.std::_Vector_base<std::optional<std::basic_string_view<char>>, std::allocator<std::optional<std::basic_string_view<char>>>>::_Vector_impl" }
%"struct.std::_Vector_base<std::optional<std::basic_string_view<char>>, std::allocator<std::optional<std::basic_string_view<char>>>>::_Vector_impl" = type { %"struct.std::_Vector_base<std::optional<std::basic_string_view<char>>, std::allocator<std::optional<std::basic_string_view<char>>>>::_Vector_impl_data" }
%"struct.std::_Vector_base<std::optional<std::basic_string_view<char>>, std::allocator<std::optional<std::basic_string_view<char>>>>::_Vector_impl_data" = type { ptr, ptr, ptr }
%"class.std::basic_string_view" = type { i64, ptr }
%"class.std::optional" = type { %"struct.std::_Optional_base" }
%"struct.std::_Optional_base" = type { %"struct.std::_Optional_payload" }
%"struct.std::_Optional_payload" = type { %"struct.std::_Optional_payload_base.base", [7 x i8] }
%"struct.std::_Optional_payload_base.base" = type <{ %"union.std::_Optional_payload_base<std::basic_string_view<char>>::_Storage", i8 }>
%"union.std::_Optional_payload_base<std::basic_string_view<char>>::_Storage" = type { %"class.std::basic_string_view" }
%"class.std::__shared_count" = type { ptr }
%"class.std::shared_ptr.29" = type { %"class.std::__shared_ptr.30" }
%"class.std::__shared_ptr.30" = type { ptr, %"class.std::__shared_count" }
%"struct.std::_Optional_payload_base" = type <{ %"union.std::_Optional_payload_base<std::basic_string_view<char>>::_Storage", i8, [7 x i8] }>
%"class.facebook::velox::row::(anonymous namespace)::UnsafeRowDataBatchIterator" = type { ptr, ptr, i64, %"class.std::shared_ptr.29" }

; Function Attrs: mustprogress nounwind uwtable
define linkonce_odr noundef nonnull align 8 dereferenceable(16) ptr @_ZNKSt22_Optional_payload_baseISt17basic_string_viewIcSt11char_traitsIcEEE6_M_getEv(ptr noundef nonnull align 8 dereferenceable(17) %this) #0 comdat align 2 {
entry:
  %this.addr = alloca ptr, align 8
  store ptr %this, ptr %this.addr, align 8
  %this1 = load ptr, ptr %this.addr, align 8
  %_M_payload = getelementptr inbounds %"struct.std::_Optional_payload_base", ptr %this1, i32 0, i32 0
  ret ptr %_M_payload
}

; Function Attrs: mustprogress nounwind uwtable
define linkonce_odr noundef nonnull align 8 dereferenceable(16) ptr @_ZNKSt19_Optional_base_implISt17basic_string_viewIcSt11char_traitsIcEESt14_Optional_baseIS3_Lb1ELb1EEE6_M_getEv(ptr noundef nonnull align 1 dereferenceable(1) %this) #0 comdat align 2 {
entry:
  %this.addr = alloca ptr, align 8
  store ptr %this, ptr %this.addr, align 8
  %this1 = load ptr, ptr %this.addr, align 8
  br label %do.body

do.body:                                          ; preds = %entry
  br label %do.cond

do.cond:                                          ; preds = %do.body
  br label %do.end

do.end:                                           ; preds = %do.cond
  %_M_payload = getelementptr inbounds %"struct.std::_Optional_base", ptr %this1, i32 0, i32 0
  %call = call noundef nonnull align 8 dereferenceable(16) ptr @_ZNKSt22_Optional_payload_baseISt17basic_string_viewIcSt11char_traitsIcEEE6_M_getEv(ptr noundef nonnull align 8 dereferenceable(17) %_M_payload) #26
  ret ptr %call
}

; Function Attrs: mustprogress nounwind uwtable
define internal noundef i64 @_ZN8facebook5velox3row12_GLOBAL__N_126UnsafeRowDataBatchIterator9readInt64EPKc(ptr noundef %data) #0 align 2 {
entry:
  %data.addr = alloca ptr, align 8
  store ptr %data, ptr %data.addr, align 8
  %0 = load ptr, ptr %data.addr, align 8
  %1 = load i64, ptr %0, align 8
  ret i64 %1
}

; Function Attrs: mustprogress nounwind uwtable
define linkonce_odr noundef ptr @_ZNKSt17basic_string_viewIcSt11char_traitsIcEE4dataEv(ptr noundef nonnull align 8 dereferenceable(16) %this) #0 comdat align 2 {
entry:
  %this.addr = alloca ptr, align 8
  store ptr %this, ptr %this.addr, align 8
  %this1 = load ptr, ptr %this.addr, align 8
  %_M_str = getelementptr inbounds %"class.std::basic_string_view", ptr %this1, i32 0, i32 1
  %0 = load ptr, ptr %_M_str, align 8
  ret ptr %0
}

; Function Attrs: mustprogress nounwind uwtable
define linkonce_odr noundef ptr @_ZNKSt8optionalISt17basic_string_viewIcSt11char_traitsIcEEEptEv(ptr noundef nonnull align 8 dereferenceable(24) %this) #0 comdat align 2 {
entry:
  %this.addr = alloca ptr, align 8
  store ptr %this, ptr %this.addr, align 8
  %this1 = load ptr, ptr %this.addr, align 8
  %call = call noundef nonnull align 8 dereferenceable(16) ptr @_ZNKSt19_Optional_base_implISt17basic_string_viewIcSt11char_traitsIcEESt14_Optional_baseIS3_Lb1ELb1EEE6_M_getEv(ptr noundef nonnull align 1 dereferenceable(1) %this1) #26
  ret ptr %call
}

; Function Attrs: mustprogress nounwind uwtable
define linkonce_odr noundef nonnull align 8 dereferenceable(24) ptr @_ZNKSt6vectorISt8optionalISt17basic_string_viewIcSt11char_traitsIcEEESaIS5_EEixEm(ptr noundef nonnull align 8 dereferenceable(24) %this, i64 noundef %__n) #0 comdat align 2 {
entry:
  %this.addr = alloca ptr, align 8
  %__n.addr = alloca i64, align 8
  store ptr %this, ptr %this.addr, align 8
  store i64 %__n, ptr %__n.addr, align 8
  %this1 = load ptr, ptr %this.addr, align 8
  %_M_impl = getelementptr inbounds %"struct.std::_Vector_base", ptr %this1, i32 0, i32 0
  %_M_start = getelementptr inbounds %"struct.std::_Vector_base<std::optional<std::basic_string_view<char>>, std::allocator<std::optional<std::basic_string_view<char>>>>::_Vector_impl_data", ptr %_M_impl, i32 0, i32 0
  %0 = load ptr, ptr %_M_start, align 8
  %1 = load i64, ptr %__n.addr, align 8
  %add.ptr = getelementptr inbounds %"class.std::optional", ptr %0, i64 %1
  ret ptr %add.ptr
}

; Function Attrs: mustprogress uwtable
define internal noundef i64 @_ZNK8facebook5velox3row12_GLOBAL__N_118ArrayBatchIterator4sizeEm(ptr noundef nonnull align 8 dereferenceable(104) %this, i64 noundef %idx) unnamed_addr #1 align 2 {
entry:
  %this.addr = alloca ptr, align 8
  %idx.addr = alloca i64, align 8
  store ptr %this, ptr %this.addr, align 8
  store i64 %idx, ptr %idx.addr, align 8
  %this1 = load ptr, ptr %this.addr, align 8
  %0 = load i64, ptr %idx.addr, align 8
  %vtable = load ptr, ptr %this1, align 8
  %vfn = getelementptr inbounds ptr, ptr %vtable, i64 2
  %1 = load ptr, ptr %vfn, align 8
  %call = call noundef zeroext i1 %1(ptr noundef nonnull align 8 dereferenceable(40) %this1, i64 noundef %0)
  br i1 %call, label %cond.true, label %cond.false

cond.true:                                        ; preds = %entry
  br label %cond.end

cond.false:                                       ; preds = %entry
  %data_ = getelementptr inbounds %"class.facebook::velox::row::(anonymous namespace)::UnsafeRowDataBatchIterator", ptr %this1, i32 0, i32 1
  %2 = load ptr, ptr %data_, align 8
  %3 = load i64, ptr %idx.addr, align 8
  %call2 = call noundef nonnull align 8 dereferenceable(24) ptr @_ZNKSt6vectorISt8optionalISt17basic_string_viewIcSt11char_traitsIcEEESaIS5_EEixEm(ptr noundef nonnull align 8 dereferenceable(24) %2, i64 noundef %3) #26
  %call3 = call noundef ptr @_ZNKSt8optionalISt17basic_string_viewIcSt11char_traitsIcEEEptEv(ptr noundef nonnull align 8 dereferenceable(24) %call2) #26
  %call4 = call noundef ptr @_ZNKSt17basic_string_viewIcSt11char_traitsIcEE4dataEv(ptr noundef nonnull align 8 dereferenceable(16) %call3) #26
  %call5 = call noundef i64 @_ZN8facebook5velox3row12_GLOBAL__N_126UnsafeRowDataBatchIterator9readInt64EPKc(ptr noundef %call4)
  br label %cond.end

cond.end:                                         ; preds = %cond.false, %cond.true
  %cond = phi i64 [ 0, %cond.true ], [ %call5, %cond.false ]
  ret i64 %cond
}