; Function Attrs: mustprogress uwtable
define internal noundef i64 @_ZNK8facebook5velox3row12_GLOBAL__N_118ArrayBatchIterator4sizeEm(ptr noundef nonnull align 8 dereferenceable(104) %this, i64 noundef %idx) unnamed_addr #1 align 2 {
entry:
  %vtable = load ptr, ptr %this, align 8
  %vfn = getelementptr inbounds i8, ptr %vtable, i64 16
  %0 = load ptr, ptr %vfn, align 8
  %call = tail call noundef zeroext i1 %0(ptr noundef nonnull align 8 dereferenceable(40) %this, i64 noundef %idx)
  br i1 %call, label %cond.end, label %cond.false

cond.false:                                       ; preds = %entry
  %data_ = getelementptr inbounds i8, ptr %this, i64 8
  %1 = load ptr, ptr %data_, align 8
  %2 = load ptr, ptr %1, align 8
  %_M_str.i = getelementptr inbounds %"class.std::optional", ptr %2, i64 %idx, i32 0, i32 0, i32 0, i32 0, i32 0, i32 1
  %3 = load ptr, ptr %_M_str.i, align 8
  %call4.val = load i64, ptr %3, align 8
  br label %cond.end

cond.end:                                         ; preds = %entry, %cond.false
  %cond = phi i64 [ %call4.val, %cond.false ], [ 0, %entry ]
  ret i64 %cond
}